target datalayout = "e-m:e-p270:32:32-p271:32:32-p272:64:64-i64:64-i128:128-f80:128-n8:16:32:64-S128"
target triple = "x86_64-pc-linux-gnu"

%"struct.Luau::Json::ArrayEmitter" = type <{ %"struct.Luau::NotNull.3", i8, i8, [6 x i8] }>
%"struct.Luau::NotNull.3" = type { ptr }
%"struct.Luau::Location" = type { %"struct.Luau::Position", %"struct.Luau::Position" }
%"struct.Luau::Position" = type { i32, i32 }

; Function Attrs: mustprogress nounwind uwtable
define linkonce_odr dso_local noundef nonnull align 8 dereferenceable(32) ptr @_ZNK4Luau7NotNullINS_4Json11JsonEmitterEEdeEv(ptr noundef nonnull align 8 dereferenceable(8) %0) #5 comdat align 2 {
  %2 = alloca ptr, align 8
  store ptr %0, ptr %2, align 8, !tbaa !395
  %3 = load ptr, ptr %2, align 8
  %4 = getelementptr inbounds nuw %"struct.Luau::NotNull.3", ptr %3, i32 0, i32 0
  %5 = load ptr, ptr %4, align 8, !tbaa !397
  ret ptr %5
}

; Function Attrs: mustprogress nounwind uwtable
define linkonce_odr dso_local noundef ptr @_ZNK4Luau7NotNullINS_4Json11JsonEmitterEEptEv(ptr noundef nonnull align 8 dereferenceable(8) %0) #5 comdat align 2 {
  %2 = alloca ptr, align 8
  store ptr %0, ptr %2, align 8, !tbaa !395
  %3 = load ptr, ptr %2, align 8
  %4 = getelementptr inbounds nuw %"struct.Luau::NotNull.3", ptr %3, i32 0, i32 0
  %5 = load ptr, ptr %4, align 8, !tbaa !397
  ret ptr %5
}

; Function Attrs: mustprogress uwtable
define linkonce_odr dso_local void @_ZN4Luau4Json12ArrayEmitter10writeValueIjEEvT_(ptr noundef nonnull align 8 dereferenceable(10) %0, i32 noundef %1) #2 comdat align 2 {
  %3 = alloca ptr, align 8
  %4 = alloca i32, align 4
  store ptr %0, ptr %3, align 8, !tbaa !24
  store i32 %1, ptr %4, align 4, !tbaa !4
  %5 = load ptr, ptr %3, align 8
  %6 = getelementptr inbounds nuw %"struct.Luau::Json::ArrayEmitter", ptr %5, i32 0, i32 2
  %7 = load i8, ptr %6, align 1, !tbaa !26, !range !30, !noundef !31
  %8 = trunc i8 %7 to i1
  br i1 %8, label %9, label %10

9:                                                ; preds = %2
  br label %16

10:                                               ; preds = %2
  %11 = getelementptr inbounds nuw %"struct.Luau::Json::ArrayEmitter", ptr %5, i32 0, i32 0
  %12 = call noundef ptr @_ZNK4Luau7NotNullINS_4Json11JsonEmitterEEptEv(ptr noundef nonnull align 8 dereferenceable(8) %11) #16
  call void @_ZN4Luau4Json11JsonEmitter10writeCommaEv(ptr noundef nonnull align 8 dereferenceable(32) %12)
  %13 = getelementptr inbounds nuw %"struct.Luau::Json::ArrayEmitter", ptr %5, i32 0, i32 0
  %14 = call noundef nonnull align 8 dereferenceable(32) ptr @_ZNK4Luau7NotNullINS_4Json11JsonEmitterEEdeEv(ptr noundef nonnull align 8 dereferenceable(8) %13) #16
  %15 = load i32, ptr %4, align 4, !tbaa !4
  call void @_ZN4Luau4Json5writeERNS0_11JsonEmitterEj(ptr noundef nonnull align 8 dereferenceable(32) %14, i32 noundef %15)
  br label %16

16:                                               ; preds = %10, %9
  ret void
}

; Function Attrs: mustprogress uwtable
define dso_local void @_ZN4Luau4Json5writeERNS0_11JsonEmitterERKNS_8LocationE(ptr noundef nonnull align 8 dereferenceable(32) %0, ptr noundef nonnull align 4 dereferenceable(16) %1) #2 personality ptr @__gxx_personality_v0 {
  %3 = alloca ptr, align 8
  %4 = alloca ptr, align 8
  %5 = alloca %"struct.Luau::Json::ArrayEmitter", align 8
  %6 = alloca ptr, align 8
  %7 = alloca i32, align 4
  store ptr %0, ptr %3, align 8, !tbaa !8
  store ptr %1, ptr %4, align 8, !tbaa !16
  call void @llvm.lifetime.start.p0(i64 16, ptr %5) #16
  %8 = load ptr, ptr %3, align 8, !tbaa !8
  call void @_ZN4Luau4Json11JsonEmitter10writeArrayEv(ptr dead_on_unwind writable sret(%"struct.Luau::Json::ArrayEmitter") align 8 %5, ptr noundef nonnull align 8 dereferenceable(32) %8)
  %9 = load ptr, ptr %4, align 8, !tbaa !16
  %10 = getelementptr inbounds nuw %"struct.Luau::Location", ptr %9, i32 0, i32 0
  %11 = getelementptr inbounds nuw %"struct.Luau::Position", ptr %10, i32 0, i32 0
  %12 = load i32, ptr %11, align 4, !tbaa !18
  invoke void @_ZN4Luau4Json12ArrayEmitter10writeValueIjEEvT_(ptr noundef nonnull align 8 dereferenceable(10) %5, i32 noundef %12)
          to label %13 unwind label %30

13:                                               ; preds = %2
  %14 = load ptr, ptr %4, align 8, !tbaa !16
  %15 = getelementptr inbounds nuw %"struct.Luau::Location", ptr %14, i32 0, i32 0
  %16 = getelementptr inbounds nuw %"struct.Luau::Position", ptr %15, i32 0, i32 1
  %17 = load i32, ptr %16, align 4, !tbaa !21
  invoke void @_ZN4Luau4Json12ArrayEmitter10writeValueIjEEvT_(ptr noundef nonnull align 8 dereferenceable(10) %5, i32 noundef %17)
          to label %18 unwind label %30

18:                                               ; preds = %13
  %19 = load ptr, ptr %4, align 8, !tbaa !16
  %20 = getelementptr inbounds nuw %"struct.Luau::Location", ptr %19, i32 0, i32 1
  %21 = getelementptr inbounds nuw %"struct.Luau::Position", ptr %20, i32 0, i32 0
  %22 = load i32, ptr %21, align 4, !tbaa !22
  invoke void @_ZN4Luau4Json12ArrayEmitter10writeValueIjEEvT_(ptr noundef nonnull align 8 dereferenceable(10) %5, i32 noundef %22)
          to label %23 unwind label %30

23:                                               ; preds = %18
  %24 = load ptr, ptr %4, align 8, !tbaa !16
  %25 = getelementptr inbounds nuw %"struct.Luau::Location", ptr %24, i32 0, i32 1
  %26 = getelementptr inbounds nuw %"struct.Luau::Position", ptr %25, i32 0, i32 1
  %27 = load i32, ptr %26, align 4, !tbaa !23
  invoke void @_ZN4Luau4Json12ArrayEmitter10writeValueIjEEvT_(ptr noundef nonnull align 8 dereferenceable(10) %5, i32 noundef %27)
          to label %28 unwind label %30

28:                                               ; preds = %23
  invoke void @_ZN4Luau4Json12ArrayEmitter6finishEv(ptr noundef nonnull align 8 dereferenceable(10) %5)
          to label %29 unwind label %30

29:                                               ; preds = %28
  call void @_ZN4Luau4Json12ArrayEmitterD1Ev(ptr noundef nonnull align 8 dereferenceable(10) %5) #16
  call void @llvm.lifetime.end.p0(i64 16, ptr %5) #16
  ret void

30:                                               ; preds = %28, %23, %18, %13, %2
  %31 = landingpad { ptr, i32 }
          cleanup
  %32 = extractvalue { ptr, i32 } %31, 0
  store ptr %32, ptr %6, align 8
  %33 = extractvalue { ptr, i32 } %31, 1
  store i32 %33, ptr %7, align 4
  call void @_ZN4Luau4Json12ArrayEmitterD1Ev(ptr noundef nonnull align 8 dereferenceable(10) %5) #16
  call void @llvm.lifetime.end.p0(i64 16, ptr %5) #16
  br label %34

34:                                               ; preds = %30
  %35 = load ptr, ptr %6, align 8
  %36 = load i32, ptr %7, align 4
  %37 = insertvalue { ptr, i32 } poison, ptr %35, 0
  %38 = insertvalue { ptr, i32 } %37, i32 %36, 1
  resume { ptr, i32 } %38
}