; Function Attrs: mustprogress uwtable
define dso_local void @_ZN4Luau4Json5writeERNS0_11JsonEmitterERKNS_8LocationE(ptr noundef nonnull align 8 dereferenceable(32) %0, ptr noundef nonnull readonly align 4 captures(none) dereferenceable(16) %1) local_unnamed_addr #2 personality ptr @__gxx_personality_v0 {
  %3 = alloca %"struct.Luau::Json::ArrayEmitter", align 8
  call void @llvm.lifetime.start.p0(i64 16, ptr nonnull %3) #22
  call void @_ZN4Luau4Json11JsonEmitter10writeArrayEv(ptr dead_on_unwind nonnull writable sret(%"struct.Luau::Json::ArrayEmitter") align 8 %3, ptr noundef nonnull align 8 dereferenceable(32) %0)
  %4 = load i32, ptr %1, align 4, !tbaa !27
  %5 = getelementptr inbounds nuw i8, ptr %3, i64 9
  %6 = load i8, ptr %5, align 1, !tbaa !30, !range !35, !noundef !36
  %7 = trunc nuw i8 %6 to i1
  br i1 %7, label %_ZN4Luau4Json12ArrayEmitter10writeValueIjEEvT_.exit15, label %8

8:                                                ; preds = %2
  %9 = load ptr, ptr %3, align 8, !tbaa !37
  invoke void @_ZN4Luau4Json11JsonEmitter10writeCommaEv(ptr noundef nonnull align 8 dereferenceable(32) %9)
          to label %.noexc unwind label %30

.noexc:                                           ; preds = %8
  %10 = load ptr, ptr %3, align 8, !tbaa !37
  invoke void @_ZN4Luau4Json5writeERNS0_11JsonEmitterEj(ptr noundef nonnull align 8 dereferenceable(32) %10, i32 noundef %4)
          to label %_ZN4Luau4Json12ArrayEmitter10writeValueIjEEvT_.exit unwind label %30

_ZN4Luau4Json12ArrayEmitter10writeValueIjEEvT_.exit: ; preds = %.noexc
  %.pre = load i8, ptr %5, align 1, !tbaa !30, !range !35
  %11 = getelementptr inbounds nuw i8, ptr %1, i64 4
  %12 = load i32, ptr %11, align 4, !tbaa !38
  %13 = trunc nuw i8 %.pre to i1
  br i1 %13, label %_ZN4Luau4Json12ArrayEmitter10writeValueIjEEvT_.exit15, label %14

14:                                               ; preds = %_ZN4Luau4Json12ArrayEmitter10writeValueIjEEvT_.exit
  %15 = load ptr, ptr %3, align 8, !tbaa !37
  invoke void @_ZN4Luau4Json11JsonEmitter10writeCommaEv(ptr noundef nonnull align 8 dereferenceable(32) %15)
          to label %.noexc7 unwind label %30

.noexc7:                                          ; preds = %14
  %16 = load ptr, ptr %3, align 8, !tbaa !37
  invoke void @_ZN4Luau4Json5writeERNS0_11JsonEmitterEj(ptr noundef nonnull align 8 dereferenceable(32) %16, i32 noundef %12)
          to label %_ZN4Luau4Json12ArrayEmitter10writeValueIjEEvT_.exit9 unwind label %30

_ZN4Luau4Json12ArrayEmitter10writeValueIjEEvT_.exit9: ; preds = %.noexc7
  %.pre16 = load i8, ptr %5, align 1, !tbaa !30, !range !35
  %17 = getelementptr inbounds nuw i8, ptr %1, i64 8
  %18 = load i32, ptr %17, align 4, !tbaa !39
  %19 = trunc nuw i8 %.pre16 to i1
  br i1 %19, label %_ZN4Luau4Json12ArrayEmitter10writeValueIjEEvT_.exit15, label %20

20:                                               ; preds = %_ZN4Luau4Json12ArrayEmitter10writeValueIjEEvT_.exit9
  %21 = load ptr, ptr %3, align 8, !tbaa !37
  invoke void @_ZN4Luau4Json11JsonEmitter10writeCommaEv(ptr noundef nonnull align 8 dereferenceable(32) %21)
          to label %.noexc10 unwind label %30

.noexc10:                                         ; preds = %20
  %22 = load ptr, ptr %3, align 8, !tbaa !37
  invoke void @_ZN4Luau4Json5writeERNS0_11JsonEmitterEj(ptr noundef nonnull align 8 dereferenceable(32) %22, i32 noundef %18)
          to label %_ZN4Luau4Json12ArrayEmitter10writeValueIjEEvT_.exit12 unwind label %30

_ZN4Luau4Json12ArrayEmitter10writeValueIjEEvT_.exit12: ; preds = %.noexc10
  %.pre17 = load i8, ptr %5, align 1, !tbaa !30, !range !35
  %23 = getelementptr inbounds nuw i8, ptr %1, i64 12
  %24 = load i32, ptr %23, align 4, !tbaa !40
  %25 = trunc nuw i8 %.pre17 to i1
  br i1 %25, label %_ZN4Luau4Json12ArrayEmitter10writeValueIjEEvT_.exit15, label %26

26:                                               ; preds = %_ZN4Luau4Json12ArrayEmitter10writeValueIjEEvT_.exit12
  %27 = load ptr, ptr %3, align 8, !tbaa !37
  invoke void @_ZN4Luau4Json11JsonEmitter10writeCommaEv(ptr noundef nonnull align 8 dereferenceable(32) %27)
          to label %.noexc13 unwind label %30

.noexc13:                                         ; preds = %26
  %28 = load ptr, ptr %3, align 8, !tbaa !37
  invoke void @_ZN4Luau4Json5writeERNS0_11JsonEmitterEj(ptr noundef nonnull align 8 dereferenceable(32) %28, i32 noundef %24)
          to label %_ZN4Luau4Json12ArrayEmitter10writeValueIjEEvT_.exit15 unwind label %30

_ZN4Luau4Json12ArrayEmitter10writeValueIjEEvT_.exit15: ; preds = %2, %_ZN4Luau4Json12ArrayEmitter10writeValueIjEEvT_.exit, %_ZN4Luau4Json12ArrayEmitter10writeValueIjEEvT_.exit9, %_ZN4Luau4Json12ArrayEmitter10writeValueIjEEvT_.exit12, %.noexc13
  invoke void @_ZN4Luau4Json12ArrayEmitter6finishEv(ptr noundef nonnull align 8 dereferenceable(10) %3)
          to label %29 unwind label %30

29:                                               ; preds = %_ZN4Luau4Json12ArrayEmitter10writeValueIjEEvT_.exit15
  call void @_ZN4Luau4Json12ArrayEmitterD1Ev(ptr noundef nonnull align 8 dereferenceable(10) %3) #22
  call void @llvm.lifetime.end.p0(i64 16, ptr nonnull %3) #22
  ret void

30:                                               ; preds = %.noexc13, %26, %.noexc10, %20, %.noexc7, %14, %.noexc, %8, %_ZN4Luau4Json12ArrayEmitter10writeValueIjEEvT_.exit15
  %31 = landingpad { ptr, i32 }
          cleanup
  call void @_ZN4Luau4Json12ArrayEmitterD1Ev(ptr noundef nonnull align 8 dereferenceable(10) %3) #22
  call void @llvm.lifetime.end.p0(i64 16, ptr nonnull %3) #22
  resume { ptr, i32 } %31
}